target datalayout = "e-m:e-p270:32:32-p271:32:32-p272:64:64-i64:64-i128:128-f80:128-n8:16:32:64-S128"
target triple = "x86_64-pc-linux-gnu"

%struct.DdManager = type { %struct.DdNode, ptr, ptr, ptr, ptr, ptr, ptr, ptr, i32, i32, double, double, double, i32, i32, i32, i32, i32, i32, ptr, ptr, %struct.DdSubtable, i32, i32, i32, i32, i32, i32, i32, double, i32, i32, i32, ptr, i64, double, i32, ptr, ptr, ptr, ptr, ptr, ptr, ptr, i32, ptr, ptr, ptr, ptr, ptr, ptr, i32, i32, i32, double, i32, i32, i32, i32, double, double, i32, i32, i32, i32, i32, i32, i32, i32, i32, ptr, ptr, i32, i32, i32, i32, i32, i32, ptr, ptr, ptr, ptr, ptr, ptr, ptr, ptr, i32, i64, i64, i64, i32, i64, i64, double, double, double, double, double, double, i32, ptr, ptr, i64 }
%struct.DdNode = type { i32, i32, ptr, %union.anon, i64 }
%union.anon = type { %struct.DdChildren }
%struct.DdChildren = type { ptr, ptr }
%struct.DdSubtable = type { ptr, i32, i32, i32, i32, i32, i32, i32, i32, i32, i32, i32 }

; Function Attrs: nounwind uwtable
define i32 @Extra_bddSuppOverlapping(ptr noundef %0, ptr noundef %1, ptr noundef %2) #0 {
  %4 = alloca i32, align 4
  %5 = alloca ptr, align 8
  %6 = alloca ptr, align 8
  %7 = alloca ptr, align 8
  store ptr %0, ptr %5, align 8, !tbaa !3
  store ptr %1, ptr %6, align 8, !tbaa !8
  store ptr %2, ptr %7, align 8, !tbaa !8
  br label %8

8:                                                ; preds = %59, %3
  %9 = load ptr, ptr %6, align 8, !tbaa !8
  %10 = getelementptr inbounds nuw %struct.DdNode, ptr %9, i32 0, i32 0
  %11 = load i32, ptr %10, align 8, !tbaa !42
  %12 = icmp ne i32 %11, 2147483647
  br i1 %12, label %13, label %18

13:                                               ; preds = %8
  %14 = load ptr, ptr %7, align 8, !tbaa !8
  %15 = getelementptr inbounds nuw %struct.DdNode, ptr %14, i32 0, i32 0
  %16 = load i32, ptr %15, align 8, !tbaa !42
  %17 = icmp ne i32 %16, 2147483647
  br label %18

18:                                               ; preds = %13, %8
  %19 = phi i1 [ false, %8 ], [ %17, %13 ]
  br i1 %19, label %20, label %60

20:                                               ; preds = %18
  %21 = load ptr, ptr %6, align 8, !tbaa !8
  %22 = getelementptr inbounds nuw %struct.DdNode, ptr %21, i32 0, i32 0
  %23 = load i32, ptr %22, align 8, !tbaa !42
  %24 = load ptr, ptr %7, align 8, !tbaa !8
  %25 = getelementptr inbounds nuw %struct.DdNode, ptr %24, i32 0, i32 0
  %26 = load i32, ptr %25, align 8, !tbaa !42
  %27 = icmp eq i32 %23, %26
  br i1 %27, label %28, label %29

28:                                               ; preds = %20
  store i32 1, ptr %4, align 4
  br label %61

29:                                               ; preds = %20
  %30 = load ptr, ptr %5, align 8, !tbaa !3
  %31 = getelementptr inbounds nuw %struct.DdManager, ptr %30, i32 0, i32 37
  %32 = load ptr, ptr %31, align 8, !tbaa !53
  %33 = load ptr, ptr %6, align 8, !tbaa !8
  %34 = getelementptr inbounds nuw %struct.DdNode, ptr %33, i32 0, i32 0
  %35 = load i32, ptr %34, align 8, !tbaa !42
  %36 = zext i32 %35 to i64
  %37 = getelementptr inbounds nuw i32, ptr %32, i64 %36
  %38 = load i32, ptr %37, align 4, !tbaa !37
  %39 = load ptr, ptr %5, align 8, !tbaa !3
  %40 = getelementptr inbounds nuw %struct.DdManager, ptr %39, i32 0, i32 37
  %41 = load ptr, ptr %40, align 8, !tbaa !53
  %42 = load ptr, ptr %7, align 8, !tbaa !8
  %43 = getelementptr inbounds nuw %struct.DdNode, ptr %42, i32 0, i32 0
  %44 = load i32, ptr %43, align 8, !tbaa !42
  %45 = zext i32 %44 to i64
  %46 = getelementptr inbounds nuw i32, ptr %41, i64 %45
  %47 = load i32, ptr %46, align 4, !tbaa !37
  %48 = icmp slt i32 %38, %47
  br i1 %48, label %49, label %54

49:                                               ; preds = %29
  %50 = load ptr, ptr %6, align 8, !tbaa !8
  %51 = getelementptr inbounds nuw %struct.DdNode, ptr %50, i32 0, i32 3
  %52 = getelementptr inbounds nuw %struct.DdChildren, ptr %51, i32 0, i32 0
  %53 = load ptr, ptr %52, align 8, !tbaa !43
  store ptr %53, ptr %6, align 8, !tbaa !8
  br label %59

54:                                               ; preds = %29
  %55 = load ptr, ptr %7, align 8, !tbaa !8
  %56 = getelementptr inbounds nuw %struct.DdNode, ptr %55, i32 0, i32 3
  %57 = getelementptr inbounds nuw %struct.DdChildren, ptr %56, i32 0, i32 0
  %58 = load ptr, ptr %57, align 8, !tbaa !43
  store ptr %58, ptr %7, align 8, !tbaa !8
  br label %59

59:                                               ; preds = %54, %49
  br label %8, !llvm.loop !54

60:                                               ; preds = %18
  store i32 0, ptr %4, align 4
  br label %61

61:                                               ; preds = %60, %28
  %62 = load i32, ptr %4, align 4
  ret i32 %62
}