; Function Attrs: nofree norecurse nosync nounwind memory(read, inaccessiblemem: none) uwtable
define range(i32 0, 2) i32 @Extra_bddSuppOverlapping(ptr noundef readonly captures(none) %0, ptr noundef readonly captures(none) %1, ptr noundef readonly captures(none) %2) local_unnamed_addr #6 {
  %4 = load i32, ptr %1, align 8, !tbaa !35
  %.not16 = icmp eq i32 %4, 2147483647
  br i1 %.not16, label %.critedge, label %.lr.ph

.lr.ph:                                           ; preds = %3
  %5 = getelementptr inbounds nuw i8, ptr %0, i64 312
  br label %6

6:                                                ; preds = %.lr.ph, %26
  %7 = phi i32 [ %4, %.lr.ph ], [ %27, %26 ]
  %.018 = phi ptr [ %2, %.lr.ph ], [ %.1, %26 ]
  %.01017 = phi ptr [ %1, %.lr.ph ], [ %.111, %26 ]
  %8 = load i32, ptr %.018, align 8, !tbaa !35
  %.not15 = icmp eq i32 %8, 2147483647
  br i1 %.not15, label %.critedge, label %9

9:                                                ; preds = %6
  %10 = icmp eq i32 %7, %8
  br i1 %10, label %.critedge, label %11

11:                                               ; preds = %9
  %12 = load ptr, ptr %5, align 8, !tbaa !45
  %13 = zext i32 %7 to i64
  %14 = getelementptr inbounds nuw i32, ptr %12, i64 %13
  %15 = load i32, ptr %14, align 4, !tbaa !31
  %16 = zext i32 %8 to i64
  %17 = getelementptr inbounds nuw i32, ptr %12, i64 %16
  %18 = load i32, ptr %17, align 4, !tbaa !31
  %19 = icmp slt i32 %15, %18
  br i1 %19, label %20, label %23

20:                                               ; preds = %11
  %21 = getelementptr inbounds nuw i8, ptr %.01017, i64 16
  %22 = load ptr, ptr %21, align 8, !tbaa !36
  %.pre = load i32, ptr %22, align 8, !tbaa !35
  br label %26

23:                                               ; preds = %11
  %24 = getelementptr inbounds nuw i8, ptr %.018, i64 16
  %25 = load ptr, ptr %24, align 8, !tbaa !36
  br label %26

26:                                               ; preds = %23, %20
  %27 = phi i32 [ %.pre, %20 ], [ %7, %23 ]
  %.111 = phi ptr [ %22, %20 ], [ %.01017, %23 ]
  %.1 = phi ptr [ %.018, %20 ], [ %25, %23 ]
  %.not = icmp eq i32 %27, 2147483647
  br i1 %.not, label %.critedge, label %6, !llvm.loop !46

.critedge:                                        ; preds = %9, %26, %6, %3
  %.012 = phi i32 [ 0, %3 ], [ 0, %6 ], [ 0, %26 ], [ 1, %9 ]
  ret i32 %.012
}